(dp0
Vjim
p1
(dp2
(Vwont
p3
Vbe
p4
tp5
(lp6
Vannoying
p7
as(Vcheck
p8
Vout
p9
tp10
(lp11
Vppm
p12
as(Vfinish
p13
Vit
p14
tp15
(lp16
Vyet?
p17
as(Vspa
p18
V(with
p19
tp20
(lp21
Vsame
p22
as(Vusing
p23
V`grunt
p24
tp25
(lp26
Vmock-api`
p27
as(Vyou
p28
Vwant
p29
tp30
(lp31
Vto
p32
as(Vyou
p33
g13
tp34
(lp35
g14
as(g24
g27
tp36
(lp37
Vand
p38
as(Vsteve-o,
p39
Vdid
p40
tp41
(lp42
g33
as(g7
S'\n'
p43
tp44
(lp45
g43
as(Vsetting
p46
V`ppmspasettings.staticroot
p47
tp48
(lp49
V=
p50
as(Vmechen!!
p51
g43
tp52
(lp53
g43
as(g38
Vset
p54
tp55
(lp56
Venterprise
p57
as(Vthe
p58
g51
tp59
(lp60
g43
as(Vhttp://ppmspa.dev/`
p61
S'\n'
p62
tp63
(lp64
g62
as(g29
g32
tp65
(lp66
Vtest
p67
as(Vto
p68
g8
tp69
(lp70
g9
as(g4
g7
tp71
(lp72
g43
as(V@phillip,
p73
Vif
p74
tp75
(lp76
g28
as(g40
g33
tp77
(lp78
g13
as(Vit
p79
Vrunning
p80
tp81
(lp82
g23
as(g12
g18
tp83
(lp84
g19
as(Vget
p85
g79
tp86
(lp87
g80
as(g50
g61
tp88
(lp89
g62
as(g14
g17
tp90
(lp91
g62
as(Vand
p92
Vyou
p93
tp94
(lp95
g3
as(g22
Vbranch)
p96
tp97
(lp98
g85
as(g93
g3
tp99
(lp100
g4
as(Vrelease
p101
g58
tp102
(lp103
g51
as(g19
g22
tp104
(lp105
g96
as(g57
g46
tp106
(lp107
g47
as(g96
g85
tp108
(lp109
g79
as(g47
g50
tp110
(lp111
g61
as(V58107
p112
Vyoull
p113
tp114
(lp115
Vneed
p116
as(g80
g23
tp117
(lp118
g24
as(g116
g68
tp119
(lp120
g8
as(g54
g57
tp121
(lp122
g46
as(g9
g12
tp123
(lp124
g18
as(g74
g28
tp125
(lp126
g29
as(g32
g67
tp127
(lp128
g112
as(Vstop
p129
Vtalking
p130
tp131
(lp132
g92
as(g67
g112
tp133
(lp134
g113
as(g17
g62
tp135
(lp136
g62
as(g130
g92
tp137
(lp138
g93
as(g27
g38
tp139
(lp140
g54
as(g113
g116
tp141
(lp142
g68
assS'jamie'
p143
(dp144
(Vyou
p145
Vrule
p146
tp147
(lp148
Vmarvin
p149
as(S'can'
p150
S'you'
p151
tp152
(lp153
S'say'
p154
as(S'to'
p155
S'me'
p156
tp157
(lp158
S'that'
p159
as(S'everything?'
p160
S'\n'
p161
tp162
(lp163
g161
as(Vjim...?
p164
g62
tp165
(lp166
g62
as(S'of'
p167
S'life?'
p168
tp169
(lp170
g161
as(Vonly
p171
V3
p172
tp173
(lp174
Vwords
p175
as(S'whats'
p176
S'the'
p177
tp178
(lp179
S'meaning'
p180
as(Vwords
p181
Vto
p182
tp183
(lp184
Vimitate
p185
as(g156
g159
tp186
(lp187
S'hasnt'
p188
as(g180
g167
tp189
(lp190
g168
as(S'have'
p191
g160
tp192
(lp193
g161
as(Vis
p194
g43
tp195
(lp196
g43
as(Vfor
p197
Vsteve
p198
tp199
(lp200
g62
as(Vnot
p201
Venough
p202
tp203
(lp204
g181
as(g159
g188
tp205
(lp206
S'already'
p207
as(g182
g185
tp208
(lp209
g164
as(g168
g161
tp210
(lp211
g161
as(S'do'
p212
S'everything'
p213
tp214
(lp215
S'you'
p216
as(S'can'
p217
S'i'
p218
tp219
(lp220
S'have?'
p221
as(S'said?'
p222
g161
tp223
(lp224
g161
as(g218
g191
tp225
(lp226
g160
as(g213
g216
tp227
(lp228
S'think'
p229
as(g146
g149
tp230
(lp231
g62
as(g154
g155
tp232
(lp233
g156
as(Vmarvin
p234
Vyes
p235
tp236
(lp237
Vit
p238
as(g198
g62
tp239
(lp240
g62
as(g188
g207
tp241
(lp242
S'been'
p243
as(g218
g221
tp244
(lp245
g161
as(S'can'
p246
S'have'
p247
tp248
(lp249
S'everything'
p250
as(S'can'
p251
g212
tp252
(lp253
g213
as(g250
g161
tp254
(lp255
g161
as(g218
g246
tp256
(lp257
g161
as(g172
g175
tp258
(lp259
g197
as(g221
g161
tp260
(lp261
g161
as(g185
g164
tp262
(lp263
g62
as(g235
g238
tp264
(lp265
g194
as(g238
g194
tp266
(lp267
g43
as(g247
g250
tp268
(lp269
g161
as(g202
g181
tp270
(lp271
g182
as(g229
g218
tp272
(lp273
S'can'
p274
as(S'what'
p275
S'can'
p276
tp277
(lp278
g151
as(g149
g62
tp279
(lp280
g62
as(g243
g222
tp281
(lp282
g161
as(g175
g197
tp283
(lp284
g198
as(g274
g161
tp285
(lp286
g161
as(g151
g154
tp287
(lp288
g155
as(g216
g229
tp289
(lp290
g218
as(g207
g243
tp291
(lp292
g222
as(g177
g180
tp293
(lp294
g167
assVPhillip
p295
(dp296
(Vyour
p297
Vmost
p298
tp299
(lp300
Vrecent
p301
as(Vtake
p302
Va
p303
tp304
(lp305
Vlook
p306
as(Vwas
p307
Vlooking
p308
tp309
(lp310
Vfine
p311
as(Vpulled
p312
Vin
p313
tp314
(lp315
g297
as(V20
p316
Vmin
p317
tp318
(lp319
Vto
p320
as(g311
Vpreviously
p321
tp322
(lp323
Vaside
p324
as(g306
Vbut
p325
tp326
(lp327
Veverything
p328
as(Vphrases
p329
S'\n'
p330
tp331
(lp332
S'\n'
p333
as(g303
g306
tp334
(lp335
g325
as(Vmaybe
p336
V15
p337
tp338
(lp339
V-
p340
as(Venough
p341
Vi
p342
tp343
(lp344
Vassume
p345
as(Vi
p346
Vjust
p347
tp348
(lp349
g312
as(g347
Vthought
p350
tp351
(lp352
Vthat
p353
as(g325
g328
tp354
(lp355
g307
as(Vfair
p356
g341
tp357
(lp358
g342
as(g321
g324
tp359
(lp360
Vfrom
p361
as(Vchanges
p362
S'\n'
p363
tp364
(lp365
g363
as(Vjust
p366
g312
tp367
(lp368
g313
as(g345
g333
tp369
(lp370
g333
as(Vtrue.
p371
g330
tp372
(lp373
g330
as(g308
g311
tp374
(lp375
g321
as(g320
g302
tp376
(lp377
g303
as(g340
g316
tp378
(lp379
g317
as(g317
g320
tp380
(lp381
g302
as(g324
g361
tp382
(lp383
Vthe
p384
as(g350
g353
tp385
(lp386
g330
as(Vneed
p387
g336
tp388
(lp389
g337
as(Vvery
p390
g371
tp391
(lp392
g330
as(Vthats
p393
g390
tp394
(lp395
g371
as(Vcrazy
p396
g329
tp397
(lp398
g333
as(g384
Vbug
p399
tp400
(lp401
g363
as(g313
g297
tp402
(lp403
g298
as(g298
g301
tp404
(lp405
g362
as(g346
Vcant
p406
tp407
(lp408
Vbelieve
p409
as(g409
g346
tp410
(lp411
g347
as(g353
g330
tp412
(lp413
g330
as(g399
g363
tp414
(lp415
g363
as(g328
g307
tp416
(lp417
g308
as(g406
g409
tp418
(lp419
g346
as(g337
g340
tp420
(lp421
g316
as(g361
g384
tp422
(lp423
g399
as(g342
g345
tp424
(lp425
g333
as(Vplay
p426
g396
tp427
(lp428
Vphrases
p429
as(g301
g362
tp430
(lp431
g363
assVJim
p432
(dp433
(Vany
p434
Vfamily
p435
tp436
(lp437
g363
as(g435
g363
tp438
(lp439
g363
as(Vblah
p440
g363
tp441
(lp442
g363
as(Vyou
p443
Vdont
p444
tp445
(lp446
Vhave
p447
as(g447
g434
tp448
(lp449
g435
as(g444
g447
tp450
(lp451
g434
as(Vmarvin,
p452
g443
tp453
(lp454
g444
as(Vblah
p455
Vblah
p456
tp457
(lp458
g363
assVAaron
p459
(dp460
(Vdo
p461
Vyou
p462
tp463
(lp464
Vhave
p465
as(g462
g465
tp466
(lp467
Vyour
p468
as(g465
g468
tp469
(lp470
Vtowel
p471
as(Vmarvin?
p472
g363
tp473
(lp474
g363
as(g471
g472
tp475
(lp476
g363
as(g468
g471
tp477
(lp478
g472
assVDrew
p479
(dp480
(Vyes,
p481
Vi
p482
tp483
(lp484
V+1d
p485
as(g485
Vit
p486
tp487
(lp488
g363
as(g482
g485
tp489
(lp490
g486
as(g486
g363
tp491
(lp492
g363
assVaaron
p493
(dp494
(Vyou
p495
Vnancy
p496
tp497
(lp498
Vkerrigan?
p499
as(Vare
p500
g495
tp501
(lp502
g496
as(g496
g499
tp503
(lp504
g62
as(Vmarvin,
p505
g500
tp506
(lp507
g495
as(g499
g62
tp508
(lp509
g62
assVScott
p510
(dp511
(Vmarvin:
p512
Vbring
p513
tp514
(lp515
Vme
p516
as(g516
g303
tp517
(lp518
Vdonut
p519
as(Vnice
p520
Vmarvin
p521
tp522
(lp523
g363
as(g513
g516
tp524
(lp525
g303
as(g519
g363
tp526
(lp527
g363
as(Vthat
p528
Vwasn\u2019t
p529
tp530
(lp531
Vvery
p532
as(g303
g519
tp533
(lp534
g363
as(g521
g363
tp535
(lp536
g363
as(g532
g520
tp537
(lp538
g521
as(g529
g532
tp539
(lp540
g520
assVJamie
p541
(dp542
(Vto
p543
Vsay
p544
tp545
(lp546
Vmore
p547
as(Vand
p548
Vthe
p549
tp550
(lp551
Vquestion
p552
as(Vyour
p553
Vface,
p554
tp555
(lp556
Vmarvin
p557
as(Vhttps://github.com/daptiv/ppm/pull/1463?
p558
g363
tp559
(lp560
g363
as(Vwhat
p561
g346
tp562
(lp563
Vsay
p564
as(Vyou
p565
Vhave
p566
tp567
(lp568
Vno
p569
as(Vtake
p570
Vyour
p571
tp572
(lp573
Vtime
p574
as(Vbring
p575
Vscott
p576
tp577
(lp578
g303
as(Vit
p579
Vwith
p580
tp581
(lp582
Vme
p583
as(Vall
p584
Vgood
p585
tp586
(lp587
Vwith
p588
as(Vwas
p589
Vtalking
p590
tp591
(lp592
Vto
p593
as(Vit
p594
Vnow
p595
tp596
(lp597
g333
as(Vmarvin
p598
Vim
p599
tp600
(lp601
Vshutting
p602
as(Vpull
p603
Vrequest
p604
tp605
(lp606
Vhttps://github.com/daptiv/ppm/pull/1463
p607
as(V@greg
p608
V@steve-o
p609
tp610
(lp611
V@drew
p612
as(Vyou
p613
g584
tp614
(lp615
g585
as(Vend
p616
Vyou
p617
tp618
(lp619
g333
as(g571
g574
tp620
(lp621
g363
as(g604
g607
tp622
(lp623
g333
as(Vask
p624
Vmarvin?
p625
tp626
(lp627
g363
as(Vthe
p628
Vfox
p629
tp630
(lp631
Vsay?
p632
as(Vhes
p633
Vdone
p634
tp635
(lp636
Vtesting
p637
as(Vhome
p638
g333
tp639
(lp640
g333
as(Vclearly
p641
g346
tp642
(lp643
Vneed
p644
as(Vwill
p645
g616
tp646
(lp647
g617
as(Vis
p648
g579
tp649
(lp650
g580
as(V@adamk
p651
g342
tp652
(lp653
Vupdated
p654
as(Vup!
p655
g333
tp656
(lp657
g333
as(g482
Vwasnt
p658
tp659
(lp660
Vtalking
p661
as(g566
g569
tp662
(lp663
Vresponse
p664
as(Vas
p665
V@greg
p666
tp667
(lp668
Vwould
p669
as(Vimitate
p670
Vme?
p671
tp672
(lp673
g363
as(V@phillip,
p674
Vyou
p675
tp676
(lp677
Varound?
p678
as(g629
g632
tp679
(lp680
g330
as(Vcall
p681
Vit
p682
tp683
(lp684
Vimitation
p685
as(Vyou
p686
g624
tp687
(lp688
g625
as(g342
g645
tp689
(lp690
g616
as(g588
g558
tp691
(lp692
g363
as(g554
g557
tp693
(lp694
g333
as(Vwhy
p695
Vdo
p696
tp697
(lp698
g686
as(Vphrases
p699
g330
tp700
(lp701
g333
as(Vsuch
p702
Van
p703
tp704
(lp705
Vintense
p706
as(Vremember
p707
Vsaying
p708
tp709
(lp710
Vthat
p711
as(Vyou
p712
Vcant
p713
tp714
(lp715
Vjust
p716
as(g564
Vand
p717
tp718
(lp719
g681
as(g346
g644
tp720
(lp721
Vto
p722
as(g637
g363
tp723
(lp724
g363
as(Vdata...
p725
Vvery
p726
tp727
(lp728
Vclever
p729
as(Vdo
p730
g594
tp731
(lp732
g595
as(g632
g330
tp733
(lp734
g330
as(V@steve-o
p735
g651
tp736
(lp737
g342
as(Vyoure
p738
Vclever
p739
tp740
(lp741
Vlike
p742
as(g576
g303
tp743
(lp744
Vdonut
p745
as(g666
g669
tp746
(lp747
Vsay,
p748
as(g585
g588
tp749
(lp750
g558
as(g544
g547
tp751
(lp752
g330
as(Vfair
p753
Venough
p754
tp755
(lp756
g342
as(g303
g745
tp757
(lp758
g363
as(Vok,
p759
Vno
p760
tp761
(lp762
Vworries
p763
as(Vcrazy
p764
g699
tp765
(lp766
Vscore
p767
as(Vsay
p768
g561
tp769
(lp770
g346
as(Vanswer
p771
Vlies
p772
tp773
(lp774
Vwithin
p775
as(Vassume
p776
g333
tp777
(lp778
g333
as(g772
g775
tp779
(lp780
g553
as(Vmarvin,
p781
Vman
p782
tp783
(lp784
g655
as(g617
g333
tp785
(lp786
g363
as(g763
g363
tp787
(lp788
g363
as(V@drew
p789
g735
tp790
(lp791
g651
as(Vscore
p792
g333
tp793
(lp794
g333
as(Vmarvin
p795
Vwhat
p796
tp797
(lp798
Vdoes
p799
as(Vor
p800
g303
tp801
(lp802
Vsquare?
p803
as(g760
g763
tp804
(lp805
g363
as(g706
Vquestion
p806
tp807
(lp808
Vmarvin
p809
as(g346
g564
tp810
(lp811
g717
as(g658
g661
tp812
(lp813
Vto
p814
as(Vme?
p815
Vreally?
p816
tp817
(lp818
Vcmon
p819
as(Vthe
p820
g603
tp821
(lp822
g604
as(g644
g543
tp823
(lp824
Vknow
p825
as(g675
g678
tp826
(lp827
g363
as(V@drew
p828
Vare
p829
tp830
(lp831
g613
as(g634
g637
tp832
(lp833
g363
as(Vwhat
p834
Va
p835
tp836
(lp837
Vdumb
p838
as(g825
Vif
p839
tp840
(lp841
g633
as(Vthat,
p842
Veh
p843
tp844
(lp845
Vmarvin?
p846
as(g599
g602
tp847
(lp848
Voff
p849
as(Vmarvin
p850
Vgo
p851
tp852
(lp853
g638
as(g346
Vdont
p854
tp855
(lp856
Vreally
p857
as(g843
g846
tp858
(lp859
g333
as(g664
Vfor
p860
tp861
(lp862
g842
as(Vme
p863
Vmarvin?
p864
tp865
(lp866
g333
as(g838
Vanswer
p867
tp868
(lp869
g333
as(g849
Veliza.
p870
tp871
(lp872
g363
as(Vmarvin
p873
Vtake
p874
tp875
(lp876
Voff
p877
as(g482
g589
tp878
(lp879
g590
as(g860
g842
tp880
(lp881
g843
as(g874
Voff
p882
tp883
(lp884
g363
as(Vdont
p885
g857
tp886
(lp887
Vcare
p888
as(Valthough
p889
g346
tp890
(lp891
g854
as(g754
g342
tp892
(lp893
g776
as(V@jim,
p894
g789
tp895
(lp896
g735
as(g595
g333
tp897
(lp898
g333
as(g870
g363
tp899
(lp900
g363
as(g661
g814
tp901
(lp902
Vyou
p903
as(g819
g781
tp904
(lp905
g782
as(g574
g363
tp906
(lp907
g363
as(Vonly
p908
g670
tp909
(lp910
g671
as(Vphrases
p911
g792
tp912
(lp913
g333
as(g857
g888
tp914
(lp915
g333
as(g739
g742
tp916
(lp917
Va
p918
as(g888
g333
tp919
(lp920
g333
as(g839
g633
tp921
(lp922
g634
as(Vprivate
p923
Vmessage
p924
tp925
(lp926
g815
as(g799
g628
tp927
(lp928
g629
as(g678
g363
tp929
(lp930
g363
as(Vare
p931
Vyou
p932
tp933
(lp934
g584
as(g713
g716
tp935
(lp936
g768
as(g580
g583
tp937
(lp938
g548
as(g711
g330
tp939
(lp940
g330
as(g583
g548
tp941
(lp942
g549
as(g609
g828
tp943
(lp944
g482
as(g549
g552
tp945
(lp946
Vof
p947
as(g726
g729
tp948
(lp949
Vmarvin
p950
as(Vthat
p951
g738
tp952
(lp953
g739
as(g342
g654
tp954
(lp955
g820
as(g835
g838
tp956
(lp957
g867
as(Vso
p958
g570
tp959
(lp960
g571
as(g816
g819
tp961
(lp962
g781
as(g782
g655
tp963
(lp964
g333
as(g775
g553
tp965
(lp966
g554
as(g851
g638
tp967
(lp968
g333
as(Vmarvin
p969
g575
tp970
(lp971
g576
as(g671
g363
tp972
(lp973
g363
as(g569
g664
tp974
(lp975
g860
as(g806
g809
tp976
(lp977
g333
as(Vthe
p978
g771
tp979
(lp980
g772
as(Vcan
p981
Vyou
p982
tp983
(lp984
g908
as(g947
Vlife
p985
tp986
(lp987
g363
as(g803
g363
tp988
(lp989
g363
as(Vup
p990
g363
tp991
(lp992
g363
as(Vshut
p993
g990
tp994
(lp995
g363
as(g703
g706
tp996
(lp997
g806
as(g932
Vmocking
p998
tp999
(lp1000
g863
as(g745
g363
tp1001
(lp1002
g363
as(Vwhat
p1003
g648
tp1004
(lp1005
g579
as(g682
g685
tp1006
(lp1007
g330
as(g303
g803
tp1008
(lp1009
g363
as(g854
g707
tp1010
(lp1011
g708
as(g985
g363
tp1012
(lp1013
g363
as(g696
g686
tp1014
(lp1015
g624
as(g685
g330
tp1016
(lp1017
g330
as(Vperhaps
p1018
g978
tp1019
(lp1020
g771
as(g342
g776
tp1021
(lp1022
g333
as(g612
g482
tp1023
(lp1024
g589
as(g708
g711
tp1025
(lp1026
g330
as(g814
Vyou
p1027
tp1028
(lp1029
g363
as(g982
g908
tp1030
(lp1031
g670
as(g998
g863
tp1032
(lp1033
g864
as(g882
g330
tp1034
(lp1035
g363
as(V@jim,
p1036
g608
tp1037
(lp1038
V@steve-o
p1039
as(Vfixing
p1040
Vtests,
p1041
tp1042
(lp1043
g958
as(g716
g768
tp1044
(lp1045
g561
as(Vfox
p1046
g330
tp1047
(lp1048
g330
as(g607
g333
tp1049
(lp1050
g333
as(g924
g815
tp1051
(lp1052
g816
as(g748
g753
tp1053
(lp1054
g754
as(g722
g825
tp1055
(lp1056
g839
as(g729
g950
tp1057
(lp1058
g330
as(g342
Vsee
p1059
tp1060
(lp1061
g565
as(g864
g333
tp1062
(lp1063
g363
as(g669
g748
tp1064
(lp1065
g753
as(g918
g1046
tp1066
(lp1067
g330
as(g552
g947
tp1068
(lp1069
g985
as(g867
g333
tp1070
(lp1071
g333
as(g547
g330
tp1072
(lp1073
g330
as(g796
g799
tp1074
(lp1075
g628
as(g717
g681
tp1076
(lp1077
g682
as(Vmarvin
p1078
g993
tp1079
(lp1080
g990
as(g602
g849
tp1081
(lp1082
g870
as(g1059
g565
tp1083
(lp1084
g566
as(Vbecause
p1085
g482
tp1086
(lp1087
Vneed
p1088
as(g950
g330
tp1089
(lp1090
g333
as(g742
g918
tp1091
(lp1092
g1046
as(Vplay
p1093
g764
tp1094
(lp1095
Vphrases
p1096
as(g1041
g958
tp1097
(lp1098
g570
as(g654
g820
tp1099
(lp1100
g603
as(Vmarvin
p1101
g342
tp1102
(lp1103
g658
as(Vahh...test
p1104
g725
tp1105
(lp1106
g726
assVphillip
p1107
(dp1108
(Vthanks!
p1109
Vi
p1110
tp1111
(lp1112
Vam
p1113
as(Vg2g
p1114
g62
tp1115
(lp1116
g62
as(V@jim,
p1117
g1109
tp1118
(lp1119
g1110
as(Vteam
p1120
Vabout
p1121
tp1122
(lp1123
Vgetting
p1124
as(g1121
g1124
tp1125
(lp1126
Vsetup
p1127
as(Va
p1128
Vturd.
p1129
tp1130
(lp1131
g62
as(Vthe
p1132
Vpull
p1133
tp1134
(lp1135
Vrequest,
p1136
as(Vwell
p1137
Vyou
p1138
tp1139
(lp1140
Vcould
p1141
as(V58465
p1142
Vis
p1143
tp1144
(lp1145
g1114
as(V@jamie,
p1146
g1142
tp1147
(lp1148
g1143
as(g1133
g1136
tp1149
(lp1150
Vmarvin
p1151
as(Vspa
p1152
g1120
tp1153
(lp1154
g1121
as(Vin
p1155
Vcontact
p1156
tp1157
(lp1158
Vwith
p1159
as(Vcheck
p1160
g1132
tp1161
(lp1162
g1133
as(g1110
g1113
tp1163
(lp1164
g1155
as(g1129
g62
tp1165
(lp1166
g62
as(g1156
g1159
tp1167
(lp1168
Vthe
p1169
as(g1141
g1160
tp1170
(lp1171
g1132
as(Vjust
p1172
Vkeep
p1173
tp1174
(lp1175
Vbeing
p1176
as(g1136
g1151
tp1177
(lp1178
g62
as(g1127
g62
tp1179
(lp1180
g62
as(g1143
g1114
tp1181
(lp1182
g62
as(g1176
g1128
tp1183
(lp1184
g1129
as(g1151
g62
tp1185
(lp1186
g62
as(g1173
g1176
tp1187
(lp1188
g1128
as(g1124
g1127
tp1189
(lp1190
g62
as(g1138
g1141
tp1191
(lp1192
g1160
as(g1159
g1169
tp1193
(lp1194
g1152
as(g1113
g1155
tp1195
(lp1196
g1156
as(g1169
g1152
tp1197
(lp1198
g1120
assVsteve-o
p1199
(dp1200
(Vthat
p1201
Vis
p1202
tp1203
(lp1204
Vit
p1205
as(g1202
g1205
tp1206
(lp1207
g43
as(Vsaid
p1208
g62
tp1209
(lp1210
g62
as(Vshe
p1211
g1208
tp1212
(lp1213
g62
as(Vthats
p1214
Vwhat
p1215
tp1216
(lp1217
g1211
as(g1215
g1211
tp1218
(lp1219
g1208
as(g1205
g43
tp1220
(lp1221
g43
ass.