(dp0
S'jamie'
p1
(dp2
(S'can'
p3
S'you'
p4
tp5
(lp6
S'say'
p7
as(S'what'
p8
S'can'
p9
tp10
(lp11
g4
as(S'everything?'
p12
S'\n'
p13
tp14
(lp15
g13
as(S'of'
p16
S'life?'
p17
tp18
(lp19
g13
as(S'whats'
p20
S'the'
p21
tp22
(lp23
S'meaning'
p24
as(S'me'
p25
S'that'
p26
tp27
(lp28
S'hasnt'
p29
as(g24
g16
tp30
(lp31
g17
as(S'have'
p32
g12
tp33
(lp34
g13
as(g26
g29
tp35
(lp36
S'already'
p37
as(g17
g13
tp38
(lp39
g13
as(S'do'
p40
S'everything'
p41
tp42
(lp43
S'you'
p44
as(S'can'
p45
S'i'
p46
tp47
(lp48
S'have?'
p49
as(S'said?'
p50
g13
tp51
(lp52
g13
as(S'can'
p53
g40
tp54
(lp55
g41
as(g41
g44
tp56
(lp57
S'think'
p58
as(g7
S'to'
p59
tp60
(lp61
g25
as(g29
g37
tp62
(lp63
S'been'
p64
as(g46
g49
tp65
(lp66
g13
as(S'can'
p67
S'have'
p68
tp69
(lp70
S'everything'
p71
as(g46
g32
tp72
(lp73
g12
as(g71
g13
tp74
(lp75
g13
as(g46
g67
tp76
(lp77
g13
as(g44
g58
tp78
(lp79
g46
as(g49
g13
tp80
(lp81
g13
as(g58
g46
tp82
(lp83
S'can'
p84
as(g59
g25
tp85
(lp86
g26
as(g64
g50
tp87
(lp88
g13
as(g84
g13
tp89
(lp90
g13
as(g21
g24
tp91
(lp92
g16
as(g68
g71
tp93
(lp94
g13
as(g37
g64
tp95
(lp96
g50
as(g4
g7
tp97
(lp98
g59
ass.