(dp0
Vjim
p1
(dp2
(Vwont
p3
Vbe
p4
tp5
(lp6
Vannoying
p7
as(g4
g7
tp8
(lp9
S'\n'
p10
as(Vfinish
p11
Vit
p12
tp13
(lp14
Vyet?
p15
as(Vspa
p16
V(with
p17
tp18
(lp19
Vsame
p20
as(Vusing
p21
V`grunt
p22
tp23
(lp24
Vmock-api`
p25
as(Vyou
p26
Vwant
p27
tp28
(lp29
Vto
p30
as(Vyou
p31
g11
tp32
(lp33
g12
as(g22
g25
tp34
(lp35
Vand
p36
as(Vsteve-o,
p37
Vdid
p38
tp39
(lp40
g31
as(g7
g10
tp41
(lp42
g10
as(Vsetting
p43
V`ppmspasettings.staticroot
p44
tp45
(lp46
V=
p47
as(Vmechen!!
p48
g10
tp49
(lp50
g10
as(g38
g31
tp51
(lp52
g11
as(g36
Vset
p53
tp54
(lp55
Venterprise
p56
as(Vthe
p57
g48
tp58
(lp59
g10
as(Vhttp://ppmspa.dev/`
p60
S'\n'
p61
tp62
(lp63
g61
as(g27
g30
tp64
(lp65
Vtest
p66
as(g66
V58107
p67
tp68
(lp69
Vyoull
p70
as(Vcheck
p71
Vout
p72
tp73
(lp74
Vppm
p75
as(V@phillip,
p76
Vif
p77
tp78
(lp79
g26
as(Vit
p80
Vrunning
p81
tp82
(lp83
g21
as(g75
g16
tp84
(lp85
g17
as(Vget
p86
g80
tp87
(lp88
g81
as(g47
g60
tp89
(lp90
g61
as(g12
g15
tp91
(lp92
g61
as(Vand
p93
Vyou
p94
tp95
(lp96
g3
as(g20
Vbranch)
p97
tp98
(lp99
g86
as(g94
g3
tp100
(lp101
g4
as(Vrelease
p102
g57
tp103
(lp104
g48
as(g17
g20
tp105
(lp106
g97
as(g56
g43
tp107
(lp108
g44
as(g97
g86
tp109
(lp110
g80
as(g67
g70
tp111
(lp112
Vneed
p113
as(g44
g47
tp114
(lp115
g60
as(g25
g36
tp116
(lp117
g53
as(g81
g21
tp118
(lp119
g22
as(g113
Vto
p120
tp121
(lp122
g71
as(g53
g56
tp123
(lp124
g43
as(Vtalking
p125
g93
tp126
(lp127
g94
as(g77
g26
tp128
(lp129
g27
as(g30
g66
tp130
(lp131
g67
as(Vstop
p132
g125
tp133
(lp134
g93
as(g120
g71
tp135
(lp136
g72
as(g15
g61
tp137
(lp138
g61
as(g72
g75
tp139
(lp140
g16
as(g70
g113
tp141
(lp142
g120
assS'jamie'
p143
(dp144
(Vyou
p145
Vrule
p146
tp147
(lp148
Vmarvin
p149
as(S'can'
p150
S'you'
p151
tp152
(lp153
S'say'
p154
as(S'to'
p155
S'me'
p156
tp157
(lp158
S'that'
p159
as(S'everything?'
p160
S'\n'
p161
tp162
(lp163
g161
as(Vjim...?
p164
g61
tp165
(lp166
g61
as(S'of'
p167
S'life?'
p168
tp169
(lp170
g161
as(S'whats'
p171
S'the'
p172
tp173
(lp174
S'meaning'
p175
as(S'have'
p176
g160
tp177
(lp178
g161
as(g175
g167
tp179
(lp180
g168
as(Vis
p181
g10
tp182
(lp183
g10
as(Vfor
p184
Vsteve
p185
tp186
(lp187
g61
as(Vnot
p188
Venough
p189
tp190
(lp191
Vwords
p192
as(g159
S'hasnt'
p193
tp194
(lp195
S'already'
p196
as(Vto
p197
Vimitate
p198
tp199
(lp200
g164
as(S'for'
p201
S'that'
p202
tp203
(lp204
S'\n'
p205
as(g192
g197
tp206
(lp207
g198
as(S'useful'
p208
S'marvin.'
p209
tp210
(lp211
S'thanks'
p212
as(g151
g154
tp213
(lp214
g155
as(S'do'
p215
S'everything'
p216
tp217
(lp218
S'you'
p219
as(S'can'
p220
S'i'
p221
tp222
(lp223
S'have?'
p224
as(S'said?'
p225
g161
tp226
(lp227
g161
as(S'everything'
p228
g161
tp229
(lp230
g161
as(S'can'
p231
g161
tp232
(lp233
g161
as(g216
g219
tp234
(lp235
S'think'
p236
as(g146
g149
tp237
(lp238
g61
as(g154
g155
tp239
(lp240
g156
as(g221
g176
tp241
(lp242
g160
as(Vmarvin
p243
Vyes
p244
tp245
(lp246
Vit
p247
as(g185
g61
tp248
(lp249
g61
as(S'rediculously'
p250
g208
tp251
(lp252
g209
as(g193
g196
tp253
(lp254
S'been'
p255
as(g221
g224
tp256
(lp257
g161
as(S'can'
p258
S'have'
p259
tp260
(lp261
g228
as(S'can'
p262
g215
tp263
(lp264
g216
as(Vonly
p265
V3
p266
tp267
(lp268
Vwords
p269
as(g221
g258
tp270
(lp271
g161
as(g212
g201
tp272
(lp273
g202
as(g266
g269
tp274
(lp275
g184
as(g224
g161
tp276
(lp277
g161
as(g202
g205
tp278
(lp279
g205
as(g244
g247
tp280
(lp281
g181
as(g247
g181
tp282
(lp283
g10
as(g189
g192
tp284
(lp285
g197
as(g236
g221
tp286
(lp287
g231
as(S'what'
p288
S'can'
p289
tp290
(lp291
g151
as(g168
g161
tp292
(lp293
g161
as(g219
g236
tp294
(lp295
g221
as(g149
g61
tp296
(lp297
g61
as(g255
g225
tp298
(lp299
g161
as(g269
g184
tp300
(lp301
g185
as(g209
g212
tp302
(lp303
g201
as(g198
g164
tp304
(lp305
g61
as(g156
g159
tp306
(lp307
g193
as(g259
g228
tp308
(lp309
g161
as(g196
g255
tp310
(lp311
g225
as(g172
g175
tp312
(lp313
g167
assVPhillip
p314
(dp315
(Vyour
p316
Vmost
p317
tp318
(lp319
Vrecent
p320
as(Vtake
p321
Va
p322
tp323
(lp324
Vlook
p325
as(Vwas
p326
Vlooking
p327
tp328
(lp329
Vfine
p330
as(Vpulled
p331
Vin
p332
tp333
(lp334
g316
as(V20
p335
Vmin
p336
tp337
(lp338
Vto
p339
as(g330
Vpreviously
p340
tp341
(lp342
Vaside
p343
as(g325
Vbut
p344
tp345
(lp346
Veverything
p347
as(Vphrases
p348
S'\n'
p349
tp350
(lp351
S'\n'
p352
as(g322
g325
tp353
(lp354
g344
as(Vmaybe
p355
V15
p356
tp357
(lp358
V-
p359
as(Venough
p360
Vi
p361
tp362
(lp363
Vassume
p364
as(Vi
p365
Vjust
p366
tp367
(lp368
g331
as(g366
Vthought
p369
tp370
(lp371
Vthat
p372
as(g344
g347
tp373
(lp374
g326
as(Vfair
p375
g360
tp376
(lp377
g361
as(g340
g343
tp378
(lp379
Vfrom
p380
as(Vchanges
p381
S'\n'
p382
tp383
(lp384
g382
as(Vjust
p385
g331
tp386
(lp387
g332
as(g364
g352
tp388
(lp389
g352
as(Vtrue.
p390
g349
tp391
(lp392
g349
as(g327
g330
tp393
(lp394
g340
as(g339
g321
tp395
(lp396
g322
as(g359
g335
tp397
(lp398
g336
as(g336
g339
tp399
(lp400
g321
as(g343
g380
tp401
(lp402
Vthe
p403
as(g369
g372
tp404
(lp405
g349
as(Vneed
p406
g355
tp407
(lp408
g356
as(Vvery
p409
g390
tp410
(lp411
g349
as(Vthats
p412
g409
tp413
(lp414
g390
as(Vcrazy
p415
g348
tp416
(lp417
g352
as(g403
Vbug
p418
tp419
(lp420
g382
as(g332
g316
tp421
(lp422
g317
as(g317
g320
tp423
(lp424
g381
as(g365
Vcant
p425
tp426
(lp427
Vbelieve
p428
as(g428
g365
tp429
(lp430
g366
as(g372
g349
tp431
(lp432
g349
as(g418
g382
tp433
(lp434
g382
as(g347
g326
tp435
(lp436
g327
as(g425
g428
tp437
(lp438
g365
as(g356
g359
tp439
(lp440
g335
as(g380
g403
tp441
(lp442
g418
as(g361
g364
tp443
(lp444
g352
as(Vplay
p445
g415
tp446
(lp447
Vphrases
p448
as(g320
g381
tp449
(lp450
g382
assVJim
p451
(dp452
(Vany
p453
Vfamily
p454
tp455
(lp456
g382
as(g454
g382
tp457
(lp458
g382
as(Vblah
p459
g382
tp460
(lp461
g382
as(Vyou
p462
Vdont
p463
tp464
(lp465
Vhave
p466
as(g466
g453
tp467
(lp468
g454
as(g463
g466
tp469
(lp470
g453
as(Vmarvin,
p471
g462
tp472
(lp473
g463
as(Vblah
p474
Vblah
p475
tp476
(lp477
g382
assS'thanksjami'
p478
(dp479
sVAaron
p480
(dp481
(Vdo
p482
Vyou
p483
tp484
(lp485
Vhave
p486
as(g483
g486
tp487
(lp488
Vyour
p489
as(g486
g489
tp490
(lp491
Vtowel
p492
as(Vmarvin?
p493
g382
tp494
(lp495
g382
as(g492
g493
tp496
(lp497
g382
as(g489
g492
tp498
(lp499
g493
assVDrew
p500
(dp501
(Vyes,
p502
Vi
p503
tp504
(lp505
V+1d
p506
as(g506
Vit
p507
tp508
(lp509
g382
as(g503
g506
tp510
(lp511
g507
as(g507
g382
tp512
(lp513
g382
assVaaron
p514
(dp515
(Vyou
p516
Vnancy
p517
tp518
(lp519
Vkerrigan?
p520
as(Vare
p521
g516
tp522
(lp523
g517
as(g517
g520
tp524
(lp525
g61
as(Vmarvin,
p526
g521
tp527
(lp528
g516
as(g520
g61
tp529
(lp530
g61
assVScott
p531
(dp532
(Vmarvin:
p533
Vbring
p534
tp535
(lp536
Vme
p537
as(g537
g322
tp538
(lp539
Vdonut
p540
as(Vnice
p541
Vmarvin
p542
tp543
(lp544
g382
as(g534
g537
tp545
(lp546
g322
as(g540
g382
tp547
(lp548
g382
as(Vthat
p549
Vwasn\u2019t
p550
tp551
(lp552
Vvery
p553
as(g322
g540
tp554
(lp555
g382
as(g542
g382
tp556
(lp557
g382
as(g553
g541
tp558
(lp559
g542
as(g550
g553
tp560
(lp561
g541
assVJamie
p562
(dp563
(Vto
p564
Vsay
p565
tp566
(lp567
Vmore
p568
as(Vmarvin,
p569
Vman
p570
tp571
(lp572
Vup!
p573
as(Vand
p574
Vthe
p575
tp576
(lp577
Vquestion
p578
as(Vyour
p579
Vface,
p580
tp581
(lp582
Vmarvin
p583
as(Vhttps://github.com/daptiv/ppm/pull/1463?
p584
g382
tp585
(lp586
g382
as(Vwhat
p587
g365
tp588
(lp589
Vsay
p590
as(Vyou
p591
Vhave
p592
tp593
(lp594
Vno
p595
as(Vtake
p596
Vyour
p597
tp598
(lp599
Vtime
p600
as(Vbring
p601
Vscott
p602
tp603
(lp604
g322
as(Vit
p605
Vwith
p606
tp607
(lp608
Vme
p609
as(Vall
p610
Vgood
p611
tp612
(lp613
Vwith
p614
as(Vwas
p615
Vtalking
p616
tp617
(lp618
Vto
p619
as(Vit
p620
Vnow
p621
tp622
(lp623
g352
as(Vmarvin
p624
Vim
p625
tp626
(lp627
Vshutting
p628
as(Vpull
p629
Vrequest
p630
tp631
(lp632
Vhttps://github.com/daptiv/ppm/pull/1463
p633
as(V@greg
p634
V@steve-o
p635
tp636
(lp637
V@drew
p638
as(Vyou
p639
g610
tp640
(lp641
g611
as(Vend
p642
Vyou
p643
tp644
(lp645
g352
as(g597
g600
tp646
(lp647
g382
as(g630
g633
tp648
(lp649
g352
as(Vask
p650
Vmarvin?
p651
tp652
(lp653
g382
as(Vthe
p654
Vfox
p655
tp656
(lp657
Vsay?
p658
as(Vhes
p659
Vdone
p660
tp661
(lp662
Vtesting
p663
as(Vhome
p664
g352
tp665
(lp666
g352
as(Vclearly
p667
g365
tp668
(lp669
Vneed
p670
as(Vwill
p671
g642
tp672
(lp673
g643
as(Vis
p674
g605
tp675
(lp676
g606
as(V@adamk
p677
g361
tp678
(lp679
Vupdated
p680
as(g573
g352
tp681
(lp682
g352
as(g503
Vwasnt
p683
tp684
(lp685
Vtalking
p686
as(g592
g595
tp687
(lp688
Vresponse
p689
as(Vas
p690
V@greg
p691
tp692
(lp693
Vwould
p694
as(Vimitate
p695
Vme?
p696
tp697
(lp698
g382
as(V@phillip,
p699
Vyou
p700
tp701
(lp702
Varound?
p703
as(g655
g658
tp704
(lp705
g349
as(Vcall
p706
Vit
p707
tp708
(lp709
Vimitation
p710
as(Vyou
p711
g650
tp712
(lp713
g651
as(g614
g584
tp714
(lp715
g382
as(g580
g583
tp716
(lp717
g352
as(Vwhy
p718
Vdo
p719
tp720
(lp721
g711
as(Vphrases
p722
g349
tp723
(lp724
g352
as(Vsuch
p725
Van
p726
tp727
(lp728
Vintense
p729
as(Vremember
p730
Vsaying
p731
tp732
(lp733
Vthat
p734
as(Vyou
p735
Vcant
p736
tp737
(lp738
Vjust
p739
as(g590
Vand
p740
tp741
(lp742
g706
as(g365
g670
tp743
(lp744
Vto
p745
as(Vdont
p746
Vreally
p747
tp748
(lp749
Vcare
p750
as(g663
g382
tp751
(lp752
g382
as(Vdata...
p753
Vvery
p754
tp755
(lp756
Vclever
p757
as(Vdo
p758
g620
tp759
(lp760
g621
as(g658
g349
tp761
(lp762
g349
as(V@steve-o
p763
g677
tp764
(lp765
g361
as(Vyoure
p766
Vclever
p767
tp768
(lp769
Vlike
p770
as(g602
g322
tp771
(lp772
Vdonut
p773
as(g691
g694
tp774
(lp775
Vsay,
p776
as(g611
g614
tp777
(lp778
g584
as(g565
g568
tp779
(lp780
g349
as(g322
g773
tp781
(lp782
g382
as(Vok,
p783
Vno
p784
tp785
(lp786
Vworries
p787
as(Vcrazy
p788
g722
tp789
(lp790
Vscore
p791
as(Vsay
p792
g587
tp793
(lp794
g365
as(Vanswer
p795
Vlies
p796
tp797
(lp798
Vwithin
p799
as(Vassume
p800
g352
tp801
(lp802
g352
as(g796
g799
tp803
(lp804
g579
as(g784
g787
tp805
(lp806
g382
as(g643
g352
tp807
(lp808
g382
as(g787
g382
tp809
(lp810
g382
as(V@drew
p811
g763
tp812
(lp813
g677
as(Vscore
p814
g352
tp815
(lp816
g352
as(Vmarvin
p817
Vwhat
p818
tp819
(lp820
Vdoes
p821
as(Vor
p822
g322
tp823
(lp824
Vsquare?
p825
as(g729
Vquestion
p826
tp827
(lp828
Vmarvin
p829
as(g365
g590
tp830
(lp831
g740
as(g683
g686
tp832
(lp833
Vto
p834
as(Vme?
p835
Vreally?
p836
tp837
(lp838
Vcmon
p839
as(Vthe
p840
g629
tp841
(lp842
g630
as(g670
g564
tp843
(lp844
Vknow
p845
as(g700
g703
tp846
(lp847
g382
as(V@drew
p848
Vare
p849
tp850
(lp851
g639
as(g660
g663
tp852
(lp853
g382
as(Vwhat
p854
Va
p855
tp856
(lp857
Vdumb
p858
as(g845
Vif
p859
tp860
(lp861
g659
as(Vthat,
p862
Veh
p863
tp864
(lp865
Vmarvin?
p866
as(g625
g628
tp867
(lp868
Voff
p869
as(Vanswer
p870
g352
tp871
(lp872
g352
as(g365
Vdont
p873
tp874
(lp875
g747
as(g621
g352
tp876
(lp877
g352
as(g689
Vfor
p878
tp879
(lp880
g862
as(Vme
p881
Vmarvin?
p882
tp883
(lp884
g352
as(g858
g870
tp885
(lp886
g352
as(g869
Veliza.
p887
tp888
(lp889
g382
as(Vmarvin
p890
Vtake
p891
tp892
(lp893
Voff
p894
as(g863
g866
tp895
(lp896
g352
as(g503
g615
tp897
(lp898
g616
as(g878
g862
tp899
(lp900
g863
as(g891
Voff
p901
tp902
(lp903
g382
as(Vprivate
p904
Vmessage
p905
tp906
(lp907
g835
as(Valthough
p908
g365
tp909
(lp910
g873
as(Venough
p911
g361
tp912
(lp913
g800
as(V@jim,
p914
g811
tp915
(lp916
g763
as(g887
g382
tp917
(lp918
g382
as(g686
g834
tp919
(lp920
Vyou
p921
as(g839
g569
tp922
(lp923
g570
as(g600
g382
tp924
(lp925
g382
as(Vonly
p926
g695
tp927
(lp928
g696
as(Vphrases
p929
g814
tp930
(lp931
g352
as(g747
g750
tp932
(lp933
g352
as(g767
g770
tp934
(lp935
Va
p936
as(g750
g352
tp937
(lp938
g352
as(g859
g659
tp939
(lp940
g660
as(g821
g654
tp941
(lp942
g655
as(g703
g382
tp943
(lp944
g382
as(Vare
p945
Vyou
p946
tp947
(lp948
g610
as(g736
g739
tp949
(lp950
g792
as(g606
g609
tp951
(lp952
g574
as(g734
g349
tp953
(lp954
g349
as(g609
g574
tp955
(lp956
g575
as(g635
g848
tp957
(lp958
g503
as(g575
g578
tp959
(lp960
Vof
p961
as(g754
g757
tp962
(lp963
Vmarvin
p964
as(Vthat
p965
g766
tp966
(lp967
g767
as(g361
g680
tp968
(lp969
g840
as(g855
g858
tp970
(lp971
g870
as(Vso
p972
g596
tp973
(lp974
g597
as(g836
g839
tp975
(lp976
g569
as(g570
g573
tp977
(lp978
g352
as(g799
g579
tp979
(lp980
g580
as(Vgo
p981
g664
tp982
(lp983
g352
as(Vmarvin
p984
g601
tp985
(lp986
g602
as(g696
g382
tp987
(lp988
g382
as(g595
g689
tp989
(lp990
g878
as(g826
g829
tp991
(lp992
g352
as(Vlife
p993
g382
tp994
(lp995
g382
as(Vthe
p996
g795
tp997
(lp998
g796
as(Vcan
p999
Vyou
p1000
tp1001
(lp1002
g926
as(g961
g993
tp1003
(lp1004
g382
as(g825
g382
tp1005
(lp1006
g382
as(Vup
p1007
g382
tp1008
(lp1009
g382
as(Vshut
p1010
g1007
tp1011
(lp1012
g382
as(g726
g729
tp1013
(lp1014
g826
as(g946
Vmocking
p1015
tp1016
(lp1017
g881
as(g773
g382
tp1018
(lp1019
g382
as(Vwhat
p1020
g674
tp1021
(lp1022
g605
as(Vperhaps
p1023
g996
tp1024
(lp1025
g795
as(g322
g825
tp1026
(lp1027
g382
as(g1000
g926
tp1028
(lp1029
g695
as(Vfair
p1030
g911
tp1031
(lp1032
g361
as(g719
g711
tp1033
(lp1034
g650
as(g710
g349
tp1035
(lp1036
g349
as(g707
g710
tp1037
(lp1038
g349
as(g361
g800
tp1039
(lp1040
g352
as(g638
g503
tp1041
(lp1042
g615
as(g731
g734
tp1043
(lp1044
g349
as(g834
Vyou
p1045
tp1046
(lp1047
g382
as(g361
g671
tp1048
(lp1049
g642
as(g1015
g881
tp1050
(lp1051
g882
as(g901
g349
tp1052
(lp1053
g382
as(V@jim,
p1054
g634
tp1055
(lp1056
V@steve-o
p1057
as(Vfixing
p1058
Vtests,
p1059
tp1060
(lp1061
g972
as(g739
g792
tp1062
(lp1063
g587
as(Vfox
p1064
g349
tp1065
(lp1066
g349
as(g633
g352
tp1067
(lp1068
g352
as(g905
g835
tp1069
(lp1070
g836
as(g776
g1030
tp1071
(lp1072
g911
as(g745
g845
tp1073
(lp1074
g859
as(g757
g964
tp1075
(lp1076
g349
as(g361
Vsee
p1077
tp1078
(lp1079
g591
as(g873
g730
tp1080
(lp1081
g731
as(g882
g352
tp1082
(lp1083
g382
as(g694
g776
tp1084
(lp1085
g1030
as(g936
g1064
tp1086
(lp1087
g349
as(g578
g961
tp1088
(lp1089
g993
as(Vmarvin
p1090
g981
tp1091
(lp1092
g664
as(g568
g349
tp1093
(lp1094
g349
as(g818
g821
tp1095
(lp1096
g654
as(g740
g706
tp1097
(lp1098
g707
as(Vmarvin
p1099
g1010
tp1100
(lp1101
g1007
as(g628
g869
tp1102
(lp1103
g887
as(g1077
g591
tp1104
(lp1105
g592
as(Vbecause
p1106
g503
tp1107
(lp1108
Vneed
p1109
as(g964
g349
tp1110
(lp1111
g352
as(g770
g936
tp1112
(lp1113
g1064
as(Vplay
p1114
g788
tp1115
(lp1116
Vphrases
p1117
as(g1059
g972
tp1118
(lp1119
g596
as(g680
g840
tp1120
(lp1121
g629
as(Vmarvin
p1122
g361
tp1123
(lp1124
g683
as(Vahh...test
p1125
g753
tp1126
(lp1127
g754
assVphillip
p1128
(dp1129
(Vthanks!
p1130
Vi
p1131
tp1132
(lp1133
Vam
p1134
as(Vg2g
p1135
g61
tp1136
(lp1137
g61
as(V@jim,
p1138
g1130
tp1139
(lp1140
g1131
as(Vteam
p1141
Vabout
p1142
tp1143
(lp1144
Vgetting
p1145
as(g1142
g1145
tp1146
(lp1147
Vsetup
p1148
as(Va
p1149
Vturd.
p1150
tp1151
(lp1152
g61
as(Vthe
p1153
Vpull
p1154
tp1155
(lp1156
Vrequest,
p1157
as(Vwell
p1158
Vyou
p1159
tp1160
(lp1161
Vcould
p1162
as(V58465
p1163
Vis
p1164
tp1165
(lp1166
g1135
as(V@jamie,
p1167
g1163
tp1168
(lp1169
g1164
as(g1154
g1157
tp1170
(lp1171
Vmarvin
p1172
as(Vspa
p1173
g1141
tp1174
(lp1175
g1142
as(Vin
p1176
Vcontact
p1177
tp1178
(lp1179
Vwith
p1180
as(Vcheck
p1181
g1153
tp1182
(lp1183
g1154
as(g1131
g1134
tp1184
(lp1185
g1176
as(g1150
g61
tp1186
(lp1187
g61
as(g1148
g61
tp1188
(lp1189
g61
as(g1162
g1181
tp1190
(lp1191
g1153
as(Vjust
p1192
Vkeep
p1193
tp1194
(lp1195
Vbeing
p1196
as(g1157
g1172
tp1197
(lp1198
g61
as(g1177
g1180
tp1199
(lp1200
Vthe
p1201
as(g1164
g1135
tp1202
(lp1203
g61
as(g1196
g1149
tp1204
(lp1205
g1150
as(g1172
g61
tp1206
(lp1207
g61
as(g1193
g1196
tp1208
(lp1209
g1149
as(g1145
g1148
tp1210
(lp1211
g61
as(g1159
g1162
tp1212
(lp1213
g1181
as(g1180
g1201
tp1214
(lp1215
g1173
as(g1134
g1176
tp1216
(lp1217
g1177
as(g1201
g1173
tp1218
(lp1219
g1141
assVsteve-o
p1220
(dp1221
(Vthat
p1222
Vis
p1223
tp1224
(lp1225
Vit
p1226
as(g1223
g1226
tp1227
(lp1228
g10
as(Vsaid
p1229
g61
tp1230
(lp1231
g61
as(Vshe
p1232
g1229
tp1233
(lp1234
g61
as(Vthats
p1235
Vwhat
p1236
tp1237
(lp1238
g1232
as(g1236
g1232
tp1239
(lp1240
g1229
as(g1226
g10
tp1241
(lp1242
g10
ass.